target datalayout = "e-m:e-p270:32:32-p271:32:32-p272:64:64-i64:64-i128:128-f80:128-n8:16:32:64-S128"
target triple = "x86_64-pc-linux-gnu"

%class.Node = type <{ ptr, ptr, ptr, i32, i32, i32, i32, i32, i32, i32, [4 x i8] }>

; Function Attrs: mustprogress nounwind uwtable
define linkonce_odr hidden noundef ptr @_ZNK4Node6as_PhiEv(ptr noundef nonnull align 8 dereferenceable(52) %0) #1 comdat align 2 {
  %2 = alloca ptr, align 8
  store ptr %0, ptr %2, align 8
  %3 = load ptr, ptr %2, align 8
  ret ptr %3
}

; Function Attrs: mustprogress nounwind uwtable
define linkonce_odr hidden noundef zeroext i1 @_ZNK4Node6is_AddEv(ptr noundef nonnull align 8 dereferenceable(52) %0) #1 comdat align 2 {
  %2 = alloca ptr, align 8
  store ptr %0, ptr %2, align 8
  %3 = load ptr, ptr %2, align 8
  %4 = getelementptr inbounds %class.Node, ptr %3, i32 0, i32 8
  %5 = load i32, ptr %4, align 4
  %6 = and i32 %5, 4095
  %7 = icmp eq i32 %6, 2048
  ret i1 %7
}

; Function Attrs: mustprogress nounwind uwtable
define linkonce_odr hidden noundef zeroext i1 @_ZNK4Node6is_PhiEv(ptr noundef nonnull align 8 dereferenceable(52) %0) #1 comdat align 2 {
  %2 = alloca ptr, align 8
  store ptr %0, ptr %2, align 8
  %3 = load ptr, ptr %2, align 8
  %4 = getelementptr inbounds %class.Node, ptr %3, i32 0, i32 8
  %5 = load i32, ptr %4, align 4
  %6 = and i32 %5, 15
  %7 = icmp eq i32 %6, 12
  ret i1 %7
}

; Function Attrs: mustprogress nounwind uwtable
define linkonce_odr hidden noundef ptr @_ZNK4Node2inEj(ptr noundef nonnull align 8 dereferenceable(52) %0, i32 noundef %1) #1 comdat align 2 {
  %3 = alloca ptr, align 8
  %4 = alloca i32, align 4
  store ptr %0, ptr %3, align 8
  store i32 %1, ptr %4, align 4
  %5 = load ptr, ptr %3, align 8
  %6 = getelementptr inbounds %class.Node, ptr %5, i32 0, i32 1
  %7 = load ptr, ptr %6, align 8
  %8 = load i32, ptr %4, align 4
  %9 = zext i32 %8 to i64
  %10 = getelementptr inbounds ptr, ptr %7, i64 %9
  %11 = load ptr, ptr %10, align 8
  ret ptr %11
}

; Function Attrs: mustprogress nounwind uwtable
define linkonce_odr hidden noundef zeroext i1 @_ZNK4Node7is_LoadEv(ptr noundef nonnull align 8 dereferenceable(52) %0) #1 comdat align 2 {
  %2 = alloca ptr, align 8
  store ptr %0, ptr %2, align 8
  %3 = load ptr, ptr %2, align 8
  %4 = getelementptr inbounds %class.Node, ptr %3, i32 0, i32 8
  %5 = load i32, ptr %4, align 4
  %6 = and i32 %5, 63
  %7 = icmp eq i32 %6, 48
  ret i1 %7
}

; Function Attrs: mustprogress nounwind uwtable
define linkonce_odr hidden noundef zeroext i1 @_ZNK4Node8is_StoreEv(ptr noundef nonnull align 8 dereferenceable(52) %0) #1 comdat align 2 {
  %2 = alloca ptr, align 8
  store ptr %0, ptr %2, align 8
  %3 = load ptr, ptr %2, align 8
  %4 = getelementptr inbounds %class.Node, ptr %3, i32 0, i32 8
  %5 = load i32, ptr %4, align 4
  %6 = and i32 %5, 127
  %7 = icmp eq i32 %6, 80
  ret i1 %7
}

; Function Attrs: mustprogress nounwind uwtable
define linkonce_odr hidden noundef i32 @_ZNK4Node3reqEv(ptr noundef nonnull align 8 dereferenceable(52) %0) #1 comdat align 2 {
  %2 = alloca ptr, align 8
  store ptr %0, ptr %2, align 8
  %3 = load ptr, ptr %2, align 8
  %4 = getelementptr inbounds %class.Node, ptr %3, i32 0, i32 3
  %5 = load i32, ptr %4, align 8
  ret i32 %5
}

; Function Attrs: mustprogress nounwind uwtable
define hidden noundef zeroext i1 @_ZN9SuperWord19have_similar_inputsEP4NodeS1_(ptr noundef nonnull align 8 dereferenceable(248) %0, ptr noundef %1, ptr noundef %2) #1 align 2 {
  %4 = alloca i1, align 1
  %5 = alloca ptr, align 8
  %6 = alloca ptr, align 8
  %7 = alloca ptr, align 8
  %8 = alloca i32, align 4
  %9 = alloca ptr, align 8
  %10 = alloca ptr, align 8
  store ptr %0, ptr %5, align 8
  store ptr %1, ptr %6, align 8
  store ptr %2, ptr %7, align 8
  %11 = load ptr, ptr %6, align 8
  %12 = call noundef i32 @_ZNK4Node3reqEv(ptr noundef nonnull align 8 dereferenceable(52) %11)
  %13 = icmp ugt i32 %12, 1
  br i1 %13, label %14, label %68

14:                                               ; preds = %3
  %15 = load ptr, ptr %6, align 8
  %16 = call noundef zeroext i1 @_ZNK4Node8is_StoreEv(ptr noundef nonnull align 8 dereferenceable(52) %15)
  br i1 %16, label %68, label %17

17:                                               ; preds = %14
  %18 = load ptr, ptr %6, align 8
  %19 = call noundef zeroext i1 @_ZNK4Node7is_LoadEv(ptr noundef nonnull align 8 dereferenceable(52) %18)
  br i1 %19, label %68, label %20

20:                                               ; preds = %17
  store i32 1, ptr %8, align 4
  br label %21

21:                                               ; preds = %64, %20
  %22 = load i32, ptr %8, align 4
  %23 = load ptr, ptr %6, align 8
  %24 = call noundef i32 @_ZNK4Node3reqEv(ptr noundef nonnull align 8 dereferenceable(52) %23)
  %25 = icmp ult i32 %22, %24
  br i1 %25, label %26, label %67

26:                                               ; preds = %21
  %27 = load ptr, ptr %6, align 8
  %28 = load i32, ptr %8, align 4
  %29 = call noundef ptr @_ZNK4Node2inEj(ptr noundef nonnull align 8 dereferenceable(52) %27, i32 noundef %28)
  store ptr %29, ptr %9, align 8
  %30 = load ptr, ptr %7, align 8
  %31 = load i32, ptr %8, align 4
  %32 = call noundef ptr @_ZNK4Node2inEj(ptr noundef nonnull align 8 dereferenceable(52) %30, i32 noundef %31)
  store ptr %32, ptr %10, align 8
  %33 = load ptr, ptr %9, align 8
  %34 = call noundef zeroext i1 @_ZNK4Node6is_PhiEv(ptr noundef nonnull align 8 dereferenceable(52) %33)
  br i1 %34, label %35, label %49

35:                                               ; preds = %26
  %36 = load ptr, ptr %10, align 8
  %37 = call noundef zeroext i1 @_ZNK4Node6is_AddEv(ptr noundef nonnull align 8 dereferenceable(52) %36)
  br i1 %37, label %38, label %49

38:                                               ; preds = %35
  %39 = load ptr, ptr %10, align 8
  %40 = call noundef ptr @_ZNK4Node2inEj(ptr noundef nonnull align 8 dereferenceable(52) %39, i32 noundef 1)
  %41 = load ptr, ptr %9, align 8
  %42 = icmp eq ptr %40, %41
  br i1 %42, label %43, label %49

43:                                               ; preds = %38
  %44 = load ptr, ptr %9, align 8
  %45 = call noundef ptr @_ZNK4Node6as_PhiEv(ptr noundef nonnull align 8 dereferenceable(52) %44)
  %46 = call noundef zeroext i1 @_ZNK7PhiNode12is_tripcountE9BasicType(ptr noundef nonnull align 8 dereferenceable(88) %45, i8 noundef zeroext 10)
  br i1 %46, label %48, label %47

47:                                               ; preds = %43
  store i1 false, ptr %4, align 1
  br label %69

48:                                               ; preds = %43
  br label %63

49:                                               ; preds = %38, %35, %26
  %50 = load ptr, ptr %9, align 8
  %51 = load ptr, ptr %50, align 8
  %52 = getelementptr inbounds ptr, ptr %51, i64 0
  %53 = load ptr, ptr %52, align 8
  %54 = call noundef i32 %53(ptr noundef nonnull align 8 dereferenceable(52) %50)
  %55 = load ptr, ptr %10, align 8
  %56 = load ptr, ptr %55, align 8
  %57 = getelementptr inbounds ptr, ptr %56, i64 0
  %58 = load ptr, ptr %57, align 8
  %59 = call noundef i32 %58(ptr noundef nonnull align 8 dereferenceable(52) %55)
  %60 = icmp ne i32 %54, %59
  br i1 %60, label %61, label %62

61:                                               ; preds = %49
  store i1 false, ptr %4, align 1
  br label %69

62:                                               ; preds = %49
  br label %63

63:                                               ; preds = %62, %48
  br label %64

64:                                               ; preds = %63
  %65 = load i32, ptr %8, align 4
  %66 = add i32 %65, 1
  store i32 %66, ptr %8, align 4
  br label %21, !llvm.loop !35

67:                                               ; preds = %21
  br label %68

68:                                               ; preds = %67, %17, %14, %3
  store i1 true, ptr %4, align 1
  br label %69

69:                                               ; preds = %68, %61, %47
  %70 = load i1, ptr %4, align 1
  ret i1 %70
}