; Function Attrs: mustprogress nounwind uwtable
define hidden noundef zeroext i1 @_ZN9SuperWord19have_similar_inputsEP4NodeS1_(ptr nocapture nonnull readnone align 8 %0, ptr nocapture noundef readonly %1, ptr nocapture noundef readonly %2) local_unnamed_addr #0 align 2 {
  %4 = getelementptr inbounds i8, ptr %1, i64 24
  %5 = load i32, ptr %4, align 8
  %6 = icmp ugt i32 %5, 1
  br i1 %6, label %7, label %.loopexit

7:                                                ; preds = %3
  %8 = getelementptr inbounds i8, ptr %1, i64 44
  %9 = load i32, ptr %8, align 4
  %10 = and i32 %9, 127
  %11 = icmp eq i32 %10, 80
  %12 = and i32 %9, 63
  %13 = icmp eq i32 %12, 48
  %or.cond = or i1 %11, %13
  br i1 %or.cond, label %.loopexit, label %.lr.ph

.lr.ph:                                           ; preds = %7
  %14 = getelementptr inbounds i8, ptr %1, i64 8
  %15 = getelementptr inbounds i8, ptr %2, i64 8
  br label %16

16:                                               ; preds = %.lr.ph, %47
  %indvars.iv = phi i64 [ 1, %.lr.ph ], [ %indvars.iv.next, %47 ]
  %17 = load ptr, ptr %14, align 8
  %18 = getelementptr inbounds ptr, ptr %17, i64 %indvars.iv
  %19 = load ptr, ptr %18, align 8
  %20 = load ptr, ptr %15, align 8
  %21 = getelementptr inbounds ptr, ptr %20, i64 %indvars.iv
  %22 = load ptr, ptr %21, align 8
  %23 = getelementptr inbounds i8, ptr %19, i64 44
  %24 = load i32, ptr %23, align 4
  %25 = and i32 %24, 15
  %26 = icmp eq i32 %25, 12
  br i1 %26, label %27, label %40

27:                                               ; preds = %16
  %28 = getelementptr inbounds i8, ptr %22, i64 44
  %29 = load i32, ptr %28, align 4
  %30 = and i32 %29, 4095
  %31 = icmp eq i32 %30, 2048
  br i1 %31, label %32, label %40

32:                                               ; preds = %27
  %33 = getelementptr inbounds i8, ptr %22, i64 8
  %34 = load ptr, ptr %33, align 8
  %35 = getelementptr inbounds i8, ptr %34, i64 8
  %36 = load ptr, ptr %35, align 8
  %37 = icmp eq ptr %36, %19
  br i1 %37, label %38, label %40

38:                                               ; preds = %32
  %39 = tail call noundef zeroext i1 @_ZNK7PhiNode12is_tripcountE9BasicType(ptr noundef nonnull align 8 dereferenceable(88) %19, i8 noundef zeroext 10) #12
  br i1 %39, label %47, label %.loopexit

40:                                               ; preds = %32, %27, %16
  %41 = load ptr, ptr %19, align 8
  %42 = load ptr, ptr %41, align 8
  %43 = tail call noundef i32 %42(ptr noundef nonnull align 8 dereferenceable(52) %19) #12
  %44 = load ptr, ptr %22, align 8
  %45 = load ptr, ptr %44, align 8
  %46 = tail call noundef i32 %45(ptr noundef nonnull align 8 dereferenceable(52) %22) #12
  %.not = icmp eq i32 %43, %46
  br i1 %.not, label %47, label %.loopexit

47:                                               ; preds = %38, %40
  %indvars.iv.next = add nuw nsw i64 %indvars.iv, 1
  %48 = load i32, ptr %4, align 8
  %49 = zext i32 %48 to i64
  %50 = icmp ult i64 %indvars.iv.next, %49
  br i1 %50, label %16, label %.loopexit, !llvm.loop !62

.loopexit:                                        ; preds = %38, %40, %47, %3, %7
  %.0 = phi i1 [ true, %7 ], [ true, %3 ], [ false, %38 ], [ false, %40 ], [ true, %47 ]
  ret i1 %.0
}